target datalayout = "e-m:e-p270:32:32-p271:32:32-p272:64:64-i64:64-i128:128-f80:128-n8:16:32:64-S128"
target triple = "x86_64-pc-linux-gnu"

%class.JfrVirtualMemoryManager = type { ptr, ptr, i64, i64, i64, i64 }

; Function Attrs: mustprogress nounwind uwtable
define hidden noundef zeroext i1 @_ZN23JfrVirtualMemoryManager10initializeEmm(ptr noundef nonnull align 8 dereferenceable(48) %0, i64 noundef %1, i64 noundef %2) #1 align 2 {
  %4 = alloca ptr, align 8
  %5 = alloca i64, align 8
  %6 = alloca i64, align 8
  store ptr %0, ptr %4, align 8
  store i64 %1, ptr %5, align 8
  store i64 %2, ptr %6, align 8
  %7 = load ptr, ptr %4, align 8
  %8 = load i64, ptr %5, align 8
  %9 = getelementptr inbounds %class.JfrVirtualMemoryManager, ptr %7, i32 0, i32 2
  store i64 %8, ptr %9, align 8
  %10 = load i64, ptr %5, align 8
  %11 = load i64, ptr %6, align 8
  %12 = mul i64 %10, %11
  %13 = getelementptr inbounds %class.JfrVirtualMemoryManager, ptr %7, i32 0, i32 3
  store i64 %12, ptr %13, align 8
  %14 = getelementptr inbounds %class.JfrVirtualMemoryManager, ptr %7, i32 0, i32 2
  %15 = load i64, ptr %14, align 8
  %16 = call noundef zeroext i1 @_ZN23JfrVirtualMemoryManager11new_segmentEm(ptr noundef nonnull align 8 dereferenceable(48) %7, i64 noundef %15)
  ret i1 %16
}