; Function Attrs: mustprogress nounwind uwtable
define hidden noundef zeroext i1 @_ZN23JfrVirtualMemoryManager10initializeEmm(ptr nocapture noundef nonnull align 8 dereferenceable(48) %0, i64 noundef %1, i64 noundef %2) local_unnamed_addr #0 align 2 {
  %4 = getelementptr inbounds i8, ptr %0, i64 16
  store i64 %1, ptr %4, align 8
  %5 = mul i64 %2, %1
  %6 = getelementptr inbounds i8, ptr %0, i64 24
  store i64 %5, ptr %6, align 8
  %7 = tail call noundef zeroext i1 @_ZN23JfrVirtualMemoryManager11new_segmentEm(ptr noundef nonnull align 8 dereferenceable(48) %0, i64 noundef %1)
  ret i1 %7
}